; Function Attrs: mustprogress uwtable
define dso_local void @_ZN6Sample16renderToolStatesEv(ptr nocapture noundef nonnull readonly align 8 dereferenceable(200) %0) local_unnamed_addr #3 align 2 {
  %2 = getelementptr inbounds i8, ptr %0, i64 112
  br label %3

3:                                                ; preds = %1, %10
  %indvars.iv = phi i64 [ 0, %1 ], [ %indvars.iv.next, %10 ]
  %4 = getelementptr inbounds [9 x ptr], ptr %2, i64 0, i64 %indvars.iv
  %5 = load ptr, ptr %4, align 8
  %.not = icmp eq ptr %5, null
  br i1 %.not, label %10, label %6

6:                                                ; preds = %3
  %7 = load ptr, ptr %5, align 8
  %8 = getelementptr inbounds i8, ptr %7, i64 32
  %9 = load ptr, ptr %8, align 8
  tail call void %9(ptr noundef nonnull align 8 dereferenceable(8) %5)
  br label %10

10:                                               ; preds = %3, %6
  %indvars.iv.next = add nuw nsw i64 %indvars.iv, 1
  %exitcond.not = icmp eq i64 %indvars.iv.next, 9
  br i1 %exitcond.not, label %11, label %3, !llvm.loop !10

11:                                               ; preds = %10
  ret void
}